target datalayout = "e-m:e-p270:32:32-p271:32:32-p272:64:64-i64:64-i128:128-f80:128-n8:16:32:64-S128"
target triple = "x86_64-pc-linux-gnu"

%struct.ossl_item_st = type { i32, ptr }

@encoding_nameid_map = internal constant [2 x { i32, [4 x i8], ptr }] [{ i32, [4 x i8], ptr } { i32 0, [4 x i8] zeroinitializer, ptr @.str.9 }, { i32, [4 x i8], ptr } { i32 1, [4 x i8] zeroinitializer, ptr @.str.10 }], align 16

; Function Attrs: nounwind uwtable
define i32 @ossl_ec_encoding_name2id(ptr noundef %0) #0 {
  %2 = alloca i32, align 4
  %3 = alloca ptr, align 8
  %4 = alloca i64, align 8
  %5 = alloca i64, align 8
  %6 = alloca i32, align 4
  store ptr %0, ptr %3, align 8, !tbaa !3
  call void @llvm.lifetime.start.p0(i64 8, ptr %4) #3
  call void @llvm.lifetime.start.p0(i64 8, ptr %5) #3
  %7 = load ptr, ptr %3, align 8, !tbaa !3
  %8 = icmp eq ptr %7, null
  br i1 %8, label %9, label %10

9:                                                ; preds = %1
  store i32 1, ptr %2, align 4
  store i32 1, ptr %6, align 4
  br label %33

10:                                               ; preds = %1
  store i64 0, ptr %4, align 8, !tbaa !8
  store i64 2, ptr %5, align 8, !tbaa !8
  br label %11

11:                                               ; preds = %29, %10
  %12 = load i64, ptr %4, align 8, !tbaa !8
  %13 = load i64, ptr %5, align 8, !tbaa !8
  %14 = icmp ult i64 %12, %13
  br i1 %14, label %15, label %32

15:                                               ; preds = %11
  %16 = load ptr, ptr %3, align 8, !tbaa !3
  %17 = load i64, ptr %4, align 8, !tbaa !8
  %18 = getelementptr inbounds nuw [2 x %struct.ossl_item_st], ptr @encoding_nameid_map, i64 0, i64 %17
  %19 = getelementptr inbounds nuw %struct.ossl_item_st, ptr %18, i32 0, i32 1
  %20 = load ptr, ptr %19, align 8, !tbaa !10
  %21 = call i32 @OPENSSL_strcasecmp(ptr noundef %16, ptr noundef %20)
  %22 = icmp eq i32 %21, 0
  br i1 %22, label %23, label %28

23:                                               ; preds = %15
  %24 = load i64, ptr %4, align 8, !tbaa !8
  %25 = getelementptr inbounds nuw [2 x %struct.ossl_item_st], ptr @encoding_nameid_map, i64 0, i64 %24
  %26 = getelementptr inbounds nuw %struct.ossl_item_st, ptr %25, i32 0, i32 0
  %27 = load i32, ptr %26, align 16, !tbaa !13
  store i32 %27, ptr %2, align 4
  store i32 1, ptr %6, align 4
  br label %33

28:                                               ; preds = %15
  br label %29

29:                                               ; preds = %28
  %30 = load i64, ptr %4, align 8, !tbaa !8
  %31 = add i64 %30, 1
  store i64 %31, ptr %4, align 8, !tbaa !8
  br label %11, !llvm.loop !14

32:                                               ; preds = %11
  store i32 -1, ptr %2, align 4
  store i32 1, ptr %6, align 4
  br label %33

33:                                               ; preds = %32, %23, %9
  call void @llvm.lifetime.end.p0(i64 8, ptr %5) #3
  call void @llvm.lifetime.end.p0(i64 8, ptr %4) #3
  %34 = load i32, ptr %2, align 4
  ret i32 %34
}