; Function Attrs: nounwind uwtable
define i32 @ossl_ec_encoding_name2id(ptr noundef %0) local_unnamed_addr #0 {
  %2 = icmp eq ptr %0, null
  br i1 %2, label %.loopexit, label %.preheader

3:                                                ; preds = %.preheader
  br i1 %4, label %.preheader, label %.loopexit, !llvm.loop !3

.preheader:                                       ; preds = %1, %3
  %4 = phi i1 [ false, %3 ], [ true, %1 ]
  %.079 = phi i64 [ 1, %3 ], [ 0, %1 ]
  %5 = getelementptr inbounds nuw [2 x %struct.ossl_item_st], ptr @encoding_nameid_map, i64 0, i64 %.079
  %6 = getelementptr inbounds nuw i8, ptr %5, i64 8
  %7 = load ptr, ptr %6, align 8, !tbaa !5
  %8 = tail call i32 @OPENSSL_strcasecmp(ptr noundef nonnull %0, ptr noundef %7) #4
  %9 = icmp eq i32 %8, 0
  br i1 %9, label %10, label %3

10:                                               ; preds = %.preheader
  %11 = load i32, ptr %5, align 16, !tbaa !11
  br label %.loopexit

.loopexit:                                        ; preds = %3, %1, %10
  %.0 = phi i32 [ %11, %10 ], [ 1, %1 ], [ -1, %3 ]
  ret i32 %.0
}